target datalayout = "e-m:e-p270:32:32-p271:32:32-p272:64:64-i64:64-f80:128-n8:16:32:64-S128"
target triple = "x86_64-pc-linux-gnu"

@.str = private unnamed_addr constant [4 x i8] c"%d\0A\00", align 1
@.str.1 = private unnamed_addr constant [10 x i8] c"%d %d %d \00", align 1
@.str.2 = private unnamed_addr constant [29 x i8] c"(%d,%d,%d)-(%d,%d,%d)=%.2lf\0A\00", align 1

; Function Attrs: noinline nounwind uwtable
define dso_local i32 @main() #0 {
  %1 = alloca i32, align 4
  %2 = alloca i32, align 4
  %3 = alloca [11 x i32], align 16
  %4 = alloca [11 x i32], align 16
  %5 = alloca [11 x i32], align 16
  %6 = alloca [51 x [3 x i32]], align 16
  %7 = alloca [50 x double], align 16
  %8 = alloca i32, align 4
  %9 = alloca i32, align 4
  %10 = alloca i32, align 4
  %11 = alloca i32, align 4
  %12 = alloca i32, align 4
  %13 = alloca i32, align 4
  %14 = alloca i32, align 4
  %15 = alloca double, align 8
  %16 = alloca i32, align 4
  %17 = alloca i32, align 4
  %18 = alloca i32, align 4
  store i32 0, i32* %1, align 4
  store i32 0, i32* %2, align 4
  %19 = call i32 (i8*, ...) @__isoc99_scanf(i8* getelementptr inbounds ([4 x i8], [4 x i8]* @.str, i64 0, i64 0), i32* %2)
  store i32 1, i32* %8, align 4
  br label %20

20:                                               ; preds = %35, %0
  %21 = load i32, i32* %8, align 4
  %22 = load i32, i32* %2, align 4
  %23 = icmp sle i32 %21, %22
  br i1 %23, label %24, label %38

24:                                               ; preds = %20
  %25 = load i32, i32* %8, align 4
  %26 = sext i32 %25 to i64
  %27 = getelementptr inbounds [11 x i32], [11 x i32]* %3, i64 0, i64 %26
  %28 = load i32, i32* %8, align 4
  %29 = sext i32 %28 to i64
  %30 = getelementptr inbounds [11 x i32], [11 x i32]* %4, i64 0, i64 %29
  %31 = load i32, i32* %8, align 4
  %32 = sext i32 %31 to i64
  %33 = getelementptr inbounds [11 x i32], [11 x i32]* %5, i64 0, i64 %32
  %34 = call i32 (i8*, ...) @__isoc99_scanf(i8* getelementptr inbounds ([10 x i8], [10 x i8]* @.str.1, i64 0, i64 0), i32* %27, i32* %30, i32* %33)
  br label %35

35:                                               ; preds = %24
  %36 = load i32, i32* %8, align 4
  %37 = add nsw i32 %36, 1
  store i32 %37, i32* %8, align 4
  br label %20

38:                                               ; preds = %20
  store i32 0, i32* %9, align 4
  store i32 1, i32* %10, align 4
  br label %39

39:                                               ; preds = %104, %38
  %40 = load i32, i32* %10, align 4
  %41 = load i32, i32* %2, align 4
  %42 = icmp sle i32 %40, %41
  br i1 %42, label %43, label %107

43:                                               ; preds = %39
  %44 = load i32, i32* %10, align 4
  %45 = add nsw i32 %44, 1
  store i32 %45, i32* %11, align 4
  br label %46

46:                                               ; preds = %100, %43
  %47 = load i32, i32* %11, align 4
  %48 = load i32, i32* %2, align 4
  %49 = icmp sle i32 %47, %48
  br i1 %49, label %50, label %103

50:                                               ; preds = %46
  %51 = load i32, i32* %9, align 4
  %52 = add nsw i32 %51, 1
  store i32 %52, i32* %9, align 4
  store i32 %52, i32* %12, align 4
  %53 = load i32, i32* %10, align 4
  %54 = sext i32 %53 to i64
  %55 = getelementptr inbounds [11 x i32], [11 x i32]* %3, i64 0, i64 %54
  %56 = load i32, i32* %55, align 4
  %57 = load i32, i32* %11, align 4
  %58 = sext i32 %57 to i64
  %59 = getelementptr inbounds [11 x i32], [11 x i32]* %3, i64 0, i64 %58
  %60 = load i32, i32* %59, align 4
  %61 = sub nsw i32 %56, %60
  %62 = call i32 (i32, ...) bitcast (i32 (...)* @sqr to i32 (i32, ...)*)(i32 %61)
  %63 = load i32, i32* %10, align 4
  %64 = sext i32 %63 to i64
  %65 = getelementptr inbounds [11 x i32], [11 x i32]* %4, i64 0, i64 %64
  %66 = load i32, i32* %65, align 4
  %67 = load i32, i32* %11, align 4
  %68 = sext i32 %67 to i64
  %69 = getelementptr inbounds [11 x i32], [11 x i32]* %4, i64 0, i64 %68
  %70 = load i32, i32* %69, align 4
  %71 = sub nsw i32 %66, %70
  %72 = call i32 (i32, ...) bitcast (i32 (...)* @sqr to i32 (i32, ...)*)(i32 %71)
  %73 = add nsw i32 %62, %72
  %74 = load i32, i32* %10, align 4
  %75 = sext i32 %74 to i64
  %76 = getelementptr inbounds [11 x i32], [11 x i32]* %5, i64 0, i64 %75
  %77 = load i32, i32* %76, align 4
  %78 = load i32, i32* %11, align 4
  %79 = sext i32 %78 to i64
  %80 = getelementptr inbounds [11 x i32], [11 x i32]* %5, i64 0, i64 %79
  %81 = load i32, i32* %80, align 4
  %82 = sub nsw i32 %77, %81
  %83 = call i32 (i32, ...) bitcast (i32 (...)* @sqr to i32 (i32, ...)*)(i32 %82)
  %84 = add nsw i32 %73, %83
  %85 = sitofp i32 %84 to double
  %86 = call double @sqrt(double %85) #3
  %87 = load i32, i32* %12, align 4
  %88 = sext i32 %87 to i64
  %89 = getelementptr inbounds [50 x double], [50 x double]* %7, i64 0, i64 %88
  store double %86, double* %89, align 8
  %90 = load i32, i32* %10, align 4
  %91 = load i32, i32* %12, align 4
  %92 = sext i32 %91 to i64
  %93 = getelementptr inbounds [51 x [3 x i32]], [51 x [3 x i32]]* %6, i64 0, i64 %92
  %94 = getelementptr inbounds [3 x i32], [3 x i32]* %93, i64 0, i64 1
  store i32 %90, i32* %94, align 4
  %95 = load i32, i32* %11, align 4
  %96 = load i32, i32* %12, align 4
  %97 = sext i32 %96 to i64
  %98 = getelementptr inbounds [51 x [3 x i32]], [51 x [3 x i32]]* %6, i64 0, i64 %97
  %99 = getelementptr inbounds [3 x i32], [3 x i32]* %98, i64 0, i64 2
  store i32 %95, i32* %99, align 4
  br label %100

100:                                              ; preds = %50
  %101 = load i32, i32* %11, align 4
  %102 = add nsw i32 %101, 1
  store i32 %102, i32* %11, align 4
  br label %46

103:                                              ; preds = %46
  br label %104

104:                                              ; preds = %103
  %105 = load i32, i32* %10, align 4
  %106 = add nsw i32 %105, 1
  store i32 %106, i32* %10, align 4
  br label %39

107:                                              ; preds = %39
  store i32 1, i32* %13, align 4
  br label %108

108:                                              ; preds = %194, %107
  %109 = load i32, i32* %13, align 4
  %110 = load i32, i32* %9, align 4
  %111 = icmp sle i32 %109, %110
  br i1 %111, label %112, label %197

112:                                              ; preds = %108
  %113 = load i32, i32* %9, align 4
  store i32 %113, i32* %14, align 4
  br label %114

114:                                              ; preds = %190, %112
  %115 = load i32, i32* %14, align 4
  %116 = load i32, i32* %13, align 4
  %117 = icmp sgt i32 %115, %116
  br i1 %117, label %118, label %193

118:                                              ; preds = %114
  %119 = load i32, i32* %14, align 4
  %120 = sub nsw i32 %119, 1
  %121 = sext i32 %120 to i64
  %122 = getelementptr inbounds [50 x double], [50 x double]* %7, i64 0, i64 %121
  %123 = load double, double* %122, align 8
  %124 = load i32, i32* %14, align 4
  %125 = sext i32 %124 to i64
  %126 = getelementptr inbounds [50 x double], [50 x double]* %7, i64 0, i64 %125
  %127 = load double, double* %126, align 8
  %128 = fcmp olt double %123, %127
  br i1 %128, label %129, label %189

129:                                              ; preds = %118
  %130 = load i32, i32* %14, align 4
  %131 = sub nsw i32 %130, 1
  %132 = sext i32 %131 to i64
  %133 = getelementptr inbounds [50 x double], [50 x double]* %7, i64 0, i64 %132
  %134 = load double, double* %133, align 8
  store double %134, double* %15, align 8
  %135 = load i32, i32* %14, align 4
  %136 = sext i32 %135 to i64
  %137 = getelementptr inbounds [50 x double], [50 x double]* %7, i64 0, i64 %136
  %138 = load double, double* %137, align 8
  %139 = load i32, i32* %14, align 4
  %140 = sub nsw i32 %139, 1
  %141 = sext i32 %140 to i64
  %142 = getelementptr inbounds [50 x double], [50 x double]* %7, i64 0, i64 %141
  store double %138, double* %142, align 8
  %143 = load double, double* %15, align 8
  %144 = load i32, i32* %14, align 4
  %145 = sext i32 %144 to i64
  %146 = getelementptr inbounds [50 x double], [50 x double]* %7, i64 0, i64 %145
  store double %143, double* %146, align 8
  %147 = load i32, i32* %14, align 4
  %148 = sub nsw i32 %147, 1
  %149 = sext i32 %148 to i64
  %150 = getelementptr inbounds [51 x [3 x i32]], [51 x [3 x i32]]* %6, i64 0, i64 %149
  %151 = getelementptr inbounds [3 x i32], [3 x i32]* %150, i64 0, i64 1
  %152 = load i32, i32* %151, align 4
  store i32 %152, i32* %16, align 4
  %153 = load i32, i32* %14, align 4
  %154 = sub nsw i32 %153, 1
  %155 = sext i32 %154 to i64
  %156 = getelementptr inbounds [51 x [3 x i32]], [51 x [3 x i32]]* %6, i64 0, i64 %155
  %157 = getelementptr inbounds [3 x i32], [3 x i32]* %156, i64 0, i64 2
  %158 = load i32, i32* %157, align 4
  store i32 %158, i32* %17, align 4
  %159 = load i32, i32* %14, align 4
  %160 = sext i32 %159 to i64
  %161 = getelementptr inbounds [51 x [3 x i32]], [51 x [3 x i32]]* %6, i64 0, i64 %160
  %162 = getelementptr inbounds [3 x i32], [3 x i32]* %161, i64 0, i64 1
  %163 = load i32, i32* %162, align 4
  %164 = load i32, i32* %14, align 4
  %165 = sub nsw i32 %164, 1
  %166 = sext i32 %165 to i64
  %167 = getelementptr inbounds [51 x [3 x i32]], [51 x [3 x i32]]* %6, i64 0, i64 %166
  %168 = getelementptr inbounds [3 x i32], [3 x i32]* %167, i64 0, i64 1
  store i32 %163, i32* %168, align 4
  %169 = load i32, i32* %14, align 4
  %170 = sext i32 %169 to i64
  %171 = getelementptr inbounds [51 x [3 x i32]], [51 x [3 x i32]]* %6, i64 0, i64 %170
  %172 = getelementptr inbounds [3 x i32], [3 x i32]* %171, i64 0, i64 2
  %173 = load i32, i32* %172, align 4
  %174 = load i32, i32* %14, align 4
  %175 = sub nsw i32 %174, 1
  %176 = sext i32 %175 to i64
  %177 = getelementptr inbounds [51 x [3 x i32]], [51 x [3 x i32]]* %6, i64 0, i64 %176
  %178 = getelementptr inbounds [3 x i32], [3 x i32]* %177, i64 0, i64 2
  store i32 %173, i32* %178, align 4
  %179 = load i32, i32* %16, align 4
  %180 = load i32, i32* %14, align 4
  %181 = sext i32 %180 to i64
  %182 = getelementptr inbounds [51 x [3 x i32]], [51 x [3 x i32]]* %6, i64 0, i64 %181
  %183 = getelementptr inbounds [3 x i32], [3 x i32]* %182, i64 0, i64 1
  store i32 %179, i32* %183, align 4
  %184 = load i32, i32* %17, align 4
  %185 = load i32, i32* %14, align 4
  %186 = sext i32 %185 to i64
  %187 = getelementptr inbounds [51 x [3 x i32]], [51 x [3 x i32]]* %6, i64 0, i64 %186
  %188 = getelementptr inbounds [3 x i32], [3 x i32]* %187, i64 0, i64 2
  store i32 %184, i32* %188, align 4
  br label %189

189:                                              ; preds = %129, %118
  br label %190

190:                                              ; preds = %189
  %191 = load i32, i32* %14, align 4
  %192 = add nsw i32 %191, -1
  store i32 %192, i32* %14, align 4
  br label %114

193:                                              ; preds = %114
  br label %194

194:                                              ; preds = %193
  %195 = load i32, i32* %13, align 4
  %196 = add nsw i32 %195, 1
  store i32 %196, i32* %13, align 4
  br label %108

197:                                              ; preds = %108
  store i32 1, i32* %18, align 4
  br label %198

198:                                              ; preds = %256, %197
  %199 = load i32, i32* %18, align 4
  %200 = load i32, i32* %9, align 4
  %201 = icmp sle i32 %199, %200
  br i1 %201, label %202, label %259

202:                                              ; preds = %198
  %203 = load i32, i32* %18, align 4
  %204 = sext i32 %203 to i64
  %205 = getelementptr inbounds [51 x [3 x i32]], [51 x [3 x i32]]* %6, i64 0, i64 %204
  %206 = getelementptr inbounds [3 x i32], [3 x i32]* %205, i64 0, i64 1
  %207 = load i32, i32* %206, align 4
  %208 = sext i32 %207 to i64
  %209 = getelementptr inbounds [11 x i32], [11 x i32]* %3, i64 0, i64 %208
  %210 = load i32, i32* %209, align 4
  %211 = load i32, i32* %18, align 4
  %212 = sext i32 %211 to i64
  %213 = getelementptr inbounds [51 x [3 x i32]], [51 x [3 x i32]]* %6, i64 0, i64 %212
  %214 = getelementptr inbounds [3 x i32], [3 x i32]* %213, i64 0, i64 1
  %215 = load i32, i32* %214, align 4
  %216 = sext i32 %215 to i64
  %217 = getelementptr inbounds [11 x i32], [11 x i32]* %4, i64 0, i64 %216
  %218 = load i32, i32* %217, align 4
  %219 = load i32, i32* %18, align 4
  %220 = sext i32 %219 to i64
  %221 = getelementptr inbounds [51 x [3 x i32]], [51 x [3 x i32]]* %6, i64 0, i64 %220
  %222 = getelementptr inbounds [3 x i32], [3 x i32]* %221, i64 0, i64 1
  %223 = load i32, i32* %222, align 4
  %224 = sext i32 %223 to i64
  %225 = getelementptr inbounds [11 x i32], [11 x i32]* %5, i64 0, i64 %224
  %226 = load i32, i32* %225, align 4
  %227 = load i32, i32* %18, align 4
  %228 = sext i32 %227 to i64
  %229 = getelementptr inbounds [51 x [3 x i32]], [51 x [3 x i32]]* %6, i64 0, i64 %228
  %230 = getelementptr inbounds [3 x i32], [3 x i32]* %229, i64 0, i64 2
  %231 = load i32, i32* %230, align 4
  %232 = sext i32 %231 to i64
  %233 = getelementptr inbounds [11 x i32], [11 x i32]* %3, i64 0, i64 %232
  %234 = load i32, i32* %233, align 4
  %235 = load i32, i32* %18, align 4
  %236 = sext i32 %235 to i64
  %237 = getelementptr inbounds [51 x [3 x i32]], [51 x [3 x i32]]* %6, i64 0, i64 %236
  %238 = getelementptr inbounds [3 x i32], [3 x i32]* %237, i64 0, i64 2
  %239 = load i32, i32* %238, align 4
  %240 = sext i32 %239 to i64
  %241 = getelementptr inbounds [11 x i32], [11 x i32]* %4, i64 0, i64 %240
  %242 = load i32, i32* %241, align 4
  %243 = load i32, i32* %18, align 4
  %244 = sext i32 %243 to i64
  %245 = getelementptr inbounds [51 x [3 x i32]], [51 x [3 x i32]]* %6, i64 0, i64 %244
  %246 = getelementptr inbounds [3 x i32], [3 x i32]* %245, i64 0, i64 2
  %247 = load i32, i32* %246, align 4
  %248 = sext i32 %247 to i64
  %249 = getelementptr inbounds [11 x i32], [11 x i32]* %5, i64 0, i64 %248
  %250 = load i32, i32* %249, align 4
  %251 = load i32, i32* %18, align 4
  %252 = sext i32 %251 to i64
  %253 = getelementptr inbounds [50 x double], [50 x double]* %7, i64 0, i64 %252
  %254 = load double, double* %253, align 8
  %255 = call i32 (i8*, ...) @printf(i8* getelementptr inbounds ([29 x i8], [29 x i8]* @.str.2, i64 0, i64 0), i32 %210, i32 %218, i32 %226, i32 %234, i32 %242, i32 %250, double %254)
  br label %256

256:                                              ; preds = %202
  %257 = load i32, i32* %18, align 4
  %258 = add nsw i32 %257, 1
  store i32 %258, i32* %18, align 4
  br label %198

259:                                              ; preds = %198
  ret i32 0
}